; Function Attrs: mustprogress uwtable
define void @_ZN32pxrInternal_v0_24__pxrReserved__11TfStringifyB5cxx11Ed(ptr dead_on_unwind noalias writable sret(%"class.std::__cxx11::basic_string") align 8 %0, double noundef %1) local_unnamed_addr #0 personality ptr @__gxx_personality_v0 {
  %3 = alloca [128 x i8], align 16
  %4 = alloca %"class.std::allocator", align 1
  call void @_ZN32pxrInternal_v0_24__pxrReserved__31Tf_ApplyDoubleToStringConverterEdPci(double noundef %1, ptr noundef nonnull %3, i32 noundef 128)
  call void @_ZNSaIcEC1Ev(ptr noundef nonnull align 1 dereferenceable(1) %4) #22
  %5 = invoke noundef ptr @_ZNSt7__cxx1112basic_stringIcSt11char_traitsIcESaIcEE13_M_local_dataEv(ptr noundef nonnull align 8 dereferenceable(32) %0)
          to label %.noexc unwind label %10

.noexc:                                           ; preds = %2
  invoke void @_ZNSt7__cxx1112basic_stringIcSt11char_traitsIcESaIcEE12_Alloc_hiderC1EPcRKS3_(ptr noundef nonnull align 8 dereferenceable(8) %0, ptr noundef %5, ptr noundef nonnull align 1 dereferenceable(1) %4)
          to label %.noexc2 unwind label %10

.noexc2:                                          ; preds = %.noexc
  %6 = call noundef i64 @strlen(ptr noundef nonnull dereferenceable(1) %3) #22
  %7 = getelementptr inbounds i8, ptr %3, i64 %6
  invoke void @_ZNSt7__cxx1112basic_stringIcSt11char_traitsIcESaIcEE12_M_constructIPKcEEvT_S8_St20forward_iterator_tag(ptr noundef nonnull align 8 dereferenceable(32) %0, ptr noundef nonnull %3, ptr noundef nonnull %7)
          to label %_ZNSt7__cxx1112basic_stringIcSt11char_traitsIcESaIcEEC2IS3_EEPKcRKS3_.exit unwind label %8

8:                                                ; preds = %.noexc2
  %9 = landingpad { ptr, i32 }
          cleanup
  call void @_ZNSaIcED2Ev(ptr noundef nonnull align 1 dereferenceable(1) %0) #22
  br label %.body

_ZNSt7__cxx1112basic_stringIcSt11char_traitsIcESaIcEEC2IS3_EEPKcRKS3_.exit: ; preds = %.noexc2
  call void @_ZNSaIcED1Ev(ptr noundef nonnull align 1 dereferenceable(1) %4) #22
  ret void

10:                                               ; preds = %.noexc, %2
  %11 = landingpad { ptr, i32 }
          cleanup
  br label %.body

.body:                                            ; preds = %8, %10
  %eh.lpad-body = phi { ptr, i32 } [ %11, %10 ], [ %9, %8 ]
  call void @_ZNSaIcED1Ev(ptr noundef nonnull align 1 dereferenceable(1) %4) #22
  resume { ptr, i32 } %eh.lpad-body
}